; Function Attrs: nounwind uwtable
define dso_local { ptr, ptr } @gen_const_global(i64 %0, ptr %1, ptr noundef readonly captures(none) %2) local_unnamed_addr #1 {
  %4 = tail call ptr @jv_mem_alloc(i64 noundef 160) #17
  %5 = getelementptr inbounds nuw i8, ptr %4, i64 16
  tail call void @llvm.memset.p0.i64(ptr noundef nonnull align 8 dereferenceable(16) %4, i8 0, i64 16, i1 false)
  store i32 9, ptr %5, align 8, !tbaa !25
  %6 = getelementptr inbounds nuw i8, ptr %4, i64 152
  store i32 -1, ptr %6, align 8, !tbaa !26
  %7 = getelementptr inbounds nuw i8, ptr %4, i64 80
  %8 = getelementptr inbounds nuw i8, ptr %4, i64 104
  tail call void @llvm.memset.p0.i64(ptr noundef nonnull align 8 dereferenceable(24) %7, i8 0, i64 24, i1 false)
  store i32 -1, ptr %8, align 8, !tbaa !27
  %9 = getelementptr inbounds nuw i8, ptr %4, i64 108
  store i32 -1, ptr %9, align 4, !tbaa !28
  %10 = getelementptr inbounds nuw i8, ptr %4, i64 112
  %11 = getelementptr inbounds nuw i8, ptr %4, i64 72
  tail call void @llvm.memset.p0.i64(ptr noundef nonnull align 8 dereferenceable(32) %10, i8 0, i64 32, i1 false)
  store i64 -1, ptr %11, align 8
  %12 = getelementptr inbounds nuw i8, ptr %4, i64 64
  store ptr null, ptr %12, align 8, !tbaa !21
  %13 = getelementptr inbounds nuw i8, ptr %4, i64 40
  store i64 %0, ptr %13, align 8
  %.sroa.2.0..sroa_idx = getelementptr inbounds nuw i8, ptr %4, i64 48
  store ptr %1, ptr %.sroa.2.0..sroa_idx, align 8, !tbaa !29
  %14 = tail call noalias ptr @strdup(ptr noundef %2) #17
  %15 = getelementptr inbounds nuw i8, ptr %4, i64 88
  store ptr %14, ptr %15, align 8, !tbaa !30
  %16 = getelementptr inbounds nuw i8, ptr %4, i64 96
  store i32 0, ptr %16, align 8, !tbaa !31
  %.fca.0.insert.i = insertvalue { ptr, ptr } poison, ptr %4, 0
  %.fca.1.insert.i = insertvalue { ptr, ptr } %.fca.0.insert.i, ptr %4, 1
  ret { ptr, ptr } %.fca.1.insert.i
}